; Function Attrs: mustprogress uwtable
define dso_local noundef zeroext i1 @_ZNK6Effect30sibling_union_field_is_writtenEPK8Variable(ptr noundef nonnull readonly align 8 captures(none) dereferenceable(74) %0, ptr noundef %1) local_unnamed_addr #5 align 2 {
  %3 = load ptr, ptr %1, align 8, !tbaa !77
  %4 = getelementptr inbounds nuw i8, ptr %3, i64 64
  %5 = load ptr, ptr %4, align 8
  %6 = tail call noundef ptr %5(ptr noundef nonnull align 8 dereferenceable(200) %1)
  %7 = tail call noundef ptr @_ZNK8Variable19get_container_unionEv(ptr noundef nonnull align 8 dereferenceable(200) %6)
  %.not = icmp eq ptr %7, null
  br i1 %.not, label %.critedge, label %.preheader

.preheader:                                       ; preds = %2
  %8 = getelementptr inbounds nuw i8, ptr %0, i64 24
  %9 = getelementptr inbounds nuw i8, ptr %0, i64 32
  %10 = load ptr, ptr %9, align 8, !tbaa !16
  %11 = load ptr, ptr %8, align 8, !tbaa !17
  %.not1617.not = icmp eq ptr %10, %11
  br i1 %.not1617.not, label %.critedge, label %.lr.ph

12:                                               ; preds = %.lr.ph
  %13 = add nuw i64 %.01318, 1
  %14 = load ptr, ptr %9, align 8, !tbaa !16
  %15 = load ptr, ptr %8, align 8, !tbaa !17
  %16 = ptrtoint ptr %14 to i64
  %17 = ptrtoint ptr %15 to i64
  %18 = sub i64 %16, %17
  %19 = ashr exact i64 %18, 3
  %.not16 = icmp ult i64 %13, %19
  br i1 %.not16, label %.lr.ph, label %.critedge, !llvm.loop !119

.lr.ph:                                           ; preds = %.preheader, %12
  %20 = phi ptr [ %15, %12 ], [ %11, %.preheader ]
  %.01318 = phi i64 [ %13, %12 ], [ 0, %.preheader ]
  %21 = getelementptr inbounds nuw ptr, ptr %20, i64 %.01318
  %22 = load ptr, ptr %21, align 8, !tbaa !23
  %23 = load ptr, ptr %22, align 8, !tbaa !77
  %24 = getelementptr inbounds nuw i8, ptr %23, i64 64
  %25 = load ptr, ptr %24, align 8
  %26 = tail call noundef ptr %25(ptr noundef nonnull align 8 dereferenceable(200) %22)
  %27 = tail call noundef ptr @_ZNK8Variable19get_container_unionEv(ptr noundef nonnull align 8 dereferenceable(200) %26)
  %.not15 = icmp eq ptr %7, %27
  br i1 %.not15, label %.critedge, label %12

.critedge:                                        ; preds = %.lr.ph, %12, %.preheader, %2
  %.3 = phi i1 [ false, %2 ], [ false, %.preheader ], [ %.not15, %12 ], [ %.not15, %.lr.ph ]
  ret i1 %.3
}